target datalayout = "e-m:e-p270:32:32-p271:32:32-p272:64:64-i64:64-i128:128-f80:128-n8:16:32:64-S128"
target triple = "x86_64-pc-linux-gnu"

%struct.CodedBitstreamContext = type { ptr, ptr, ptr, ptr, i32, i32, i32, ptr, ptr, ptr, ptr, i64 }
%struct.CodedBitstreamAV1Context = type { ptr, ptr, ptr, i32, ptr, ptr, i64, i32, i32, i32, i32, i32, i32, i32, i32, i32, i32, i32, i32, i32, i32, i32, i32, [8 x i32], [8 x i32], [8 x %struct.AV1ReferenceFrameState], i32, i32, [8 x i8], [2 x i8], [8 x [8 x i8]], [8 x [8 x i16]] }
%struct.AV1ReferenceFrameState = type { i32, i32, i32, i32, i32, i32, i32, i32, i32, i32, i32, i32, [8 x i32], [8 x i8], [2 x i8], [8 x [8 x i8]], [8 x [8 x i16]] }
%struct.AV1RawFrameHeader = type { i8, i8, i32, i32, i8, i8, i8, i8, i8, i8, i8, i32, i8, i8, i8, [32 x i32], i8, i16, i16, i8, i8, i8, i16, i16, [7 x i8], i8, i8, [8 x i8], i8, i8, i8, [7 x i8], [7 x i32], i8, i8, i8, i8, i8, i8, i8, i8, i8, [64 x i8], [64 x i8], [64 x i8], [64 x i8], i16, i8, i16, i16, i8, i8, i8, i8, i8, i8, i8, i8, i8, i8, i8, i8, i8, i8, i8, [8 x [8 x i8]], [8 x [8 x i16]], i8, i8, i8, i8, i8, [4 x i8], i8, i8, i8, [8 x i8], [8 x i8], [2 x i8], [2 x i8], i8, i8, [8 x i8], [8 x i8], [8 x i8], [8 x i8], [3 x i8], i8, i8, i8, i8, i8, i8, i8, [8 x i8], [8 x i8], [8 x i8], [8 x [6 x i32]], %struct.AV1RawFilmGrainParams }
%struct.AV1RawFilmGrainParams = type { i8, i16, i8, i8, i8, [14 x i8], [14 x i8], i8, i8, [10 x i8], [10 x i8], i8, [10 x i8], [10 x i8], i8, i8, [24 x i8], [25 x i8], [25 x i8], i8, i8, i8, i8, i16, i8, i8, i16, i8, i8 }

@.str.146 = private unnamed_addr constant [32 x i8] c"render_and_frame_size_different\00", align 1
@.str.147 = private unnamed_addr constant [21 x i8] c"render_width_minus_1\00", align 1
@.str.148 = private unnamed_addr constant [22 x i8] c"render_height_minus_1\00", align 1

; Function Attrs: nounwind uwtable
define internal i32 @cbs_av1_read_render_size(ptr noundef %0, ptr noundef %1, ptr noundef %2) #0 {
  %4 = alloca i32, align 4
  %5 = alloca ptr, align 8
  %6 = alloca ptr, align 8
  %7 = alloca ptr, align 8
  %8 = alloca ptr, align 8
  %9 = alloca i32, align 4
  %10 = alloca i32, align 4
  %11 = alloca i32, align 4
  %12 = alloca i32, align 4
  %13 = alloca i32, align 4
  store ptr %0, ptr %5, align 8, !tbaa !4
  store ptr %1, ptr %6, align 8, !tbaa !103
  store ptr %2, ptr %7, align 8, !tbaa !159
  call void @llvm.lifetime.start.p0(i64 8, ptr %8) #8
  %14 = load ptr, ptr %5, align 8, !tbaa !4
  %15 = getelementptr inbounds nuw %struct.CodedBitstreamContext, ptr %14, i32 0, i32 2
  %16 = load ptr, ptr %15, align 8, !tbaa !36
  store ptr %16, ptr %8, align 8, !tbaa !37
  call void @llvm.lifetime.start.p0(i64 4, ptr %9) #8
  br label %17

17:                                               ; preds = %3
  call void @llvm.lifetime.start.p0(i64 4, ptr %10) #8
  br label %18

18:                                               ; preds = %17
  %19 = load ptr, ptr %5, align 8, !tbaa !4
  %20 = load ptr, ptr %6, align 8, !tbaa !103
  %21 = call i32 @ff_cbs_read_simple_unsigned(ptr noundef %19, ptr noundef %20, i32 noundef 1, ptr noundef @.str.146, ptr noundef %10)
  store i32 %21, ptr %9, align 4, !tbaa !11
  %22 = load i32, ptr %9, align 4, !tbaa !11
  %23 = icmp slt i32 %22, 0
  br i1 %23, label %24, label %26

24:                                               ; preds = %18
  %25 = load i32, ptr %9, align 4, !tbaa !11
  store i32 %25, ptr %4, align 4
  store i32 1, ptr %11, align 4
  br label %33

26:                                               ; preds = %18
  br label %27

27:                                               ; preds = %26
  br label %28

28:                                               ; preds = %27
  %29 = load i32, ptr %10, align 4, !tbaa !11
  %30 = trunc i32 %29 to i8
  %31 = load ptr, ptr %7, align 8, !tbaa !159
  %32 = getelementptr inbounds nuw %struct.AV1RawFrameHeader, ptr %31, i32 0, i32 21
  store i8 %30, ptr %32, align 4, !tbaa !297
  store i32 0, ptr %11, align 4
  br label %33

33:                                               ; preds = %28, %24
  call void @llvm.lifetime.end.p0(i64 4, ptr %10) #8
  %34 = load i32, ptr %11, align 4
  switch i32 %34, label %117 [
    i32 0, label %35
  ]

35:                                               ; preds = %33
  br label %36

36:                                               ; preds = %35
  br label %37

37:                                               ; preds = %36
  %38 = load ptr, ptr %7, align 8, !tbaa !159
  %39 = getelementptr inbounds nuw %struct.AV1RawFrameHeader, ptr %38, i32 0, i32 21
  %40 = load i8, ptr %39, align 4, !tbaa !297
  %41 = icmp ne i8 %40, 0
  br i1 %41, label %42, label %85

42:                                               ; preds = %37
  br label %43

43:                                               ; preds = %42
  call void @llvm.lifetime.start.p0(i64 4, ptr %12) #8
  br label %44

44:                                               ; preds = %43
  %45 = load ptr, ptr %5, align 8, !tbaa !4
  %46 = load ptr, ptr %6, align 8, !tbaa !103
  %47 = call i32 @ff_cbs_read_simple_unsigned(ptr noundef %45, ptr noundef %46, i32 noundef 16, ptr noundef @.str.147, ptr noundef %12)
  store i32 %47, ptr %9, align 4, !tbaa !11
  %48 = load i32, ptr %9, align 4, !tbaa !11
  %49 = icmp slt i32 %48, 0
  br i1 %49, label %50, label %52

50:                                               ; preds = %44
  %51 = load i32, ptr %9, align 4, !tbaa !11
  store i32 %51, ptr %4, align 4
  store i32 1, ptr %11, align 4
  br label %59

52:                                               ; preds = %44
  br label %53

53:                                               ; preds = %52
  br label %54

54:                                               ; preds = %53
  %55 = load i32, ptr %12, align 4, !tbaa !11
  %56 = trunc i32 %55 to i16
  %57 = load ptr, ptr %7, align 8, !tbaa !159
  %58 = getelementptr inbounds nuw %struct.AV1RawFrameHeader, ptr %57, i32 0, i32 22
  store i16 %56, ptr %58, align 2, !tbaa !253
  store i32 0, ptr %11, align 4
  br label %59

59:                                               ; preds = %54, %50
  call void @llvm.lifetime.end.p0(i64 4, ptr %12) #8
  %60 = load i32, ptr %11, align 4
  switch i32 %60, label %117 [
    i32 0, label %61
  ]

61:                                               ; preds = %59
  br label %62

62:                                               ; preds = %61
  br label %63

63:                                               ; preds = %62
  br label %64

64:                                               ; preds = %63
  call void @llvm.lifetime.start.p0(i64 4, ptr %13) #8
  br label %65

65:                                               ; preds = %64
  %66 = load ptr, ptr %5, align 8, !tbaa !4
  %67 = load ptr, ptr %6, align 8, !tbaa !103
  %68 = call i32 @ff_cbs_read_simple_unsigned(ptr noundef %66, ptr noundef %67, i32 noundef 16, ptr noundef @.str.148, ptr noundef %13)
  store i32 %68, ptr %9, align 4, !tbaa !11
  %69 = load i32, ptr %9, align 4, !tbaa !11
  %70 = icmp slt i32 %69, 0
  br i1 %70, label %71, label %73

71:                                               ; preds = %65
  %72 = load i32, ptr %9, align 4, !tbaa !11
  store i32 %72, ptr %4, align 4
  store i32 1, ptr %11, align 4
  br label %80

73:                                               ; preds = %65
  br label %74

74:                                               ; preds = %73
  br label %75

75:                                               ; preds = %74
  %76 = load i32, ptr %13, align 4, !tbaa !11
  %77 = trunc i32 %76 to i16
  %78 = load ptr, ptr %7, align 8, !tbaa !159
  %79 = getelementptr inbounds nuw %struct.AV1RawFrameHeader, ptr %78, i32 0, i32 23
  store i16 %77, ptr %79, align 4, !tbaa !254
  store i32 0, ptr %11, align 4
  br label %80

80:                                               ; preds = %75, %71
  call void @llvm.lifetime.end.p0(i64 4, ptr %13) #8
  %81 = load i32, ptr %11, align 4
  switch i32 %81, label %117 [
    i32 0, label %82
  ]

82:                                               ; preds = %80
  br label %83

83:                                               ; preds = %82
  br label %84

84:                                               ; preds = %83
  br label %102

85:                                               ; preds = %37
  br label %86

86:                                               ; preds = %85
  %87 = load ptr, ptr %7, align 8, !tbaa !159
  %88 = getelementptr inbounds nuw %struct.AV1RawFrameHeader, ptr %87, i32 0, i32 17
  %89 = load i16, ptr %88, align 2, !tbaa !251
  %90 = load ptr, ptr %7, align 8, !tbaa !159
  %91 = getelementptr inbounds nuw %struct.AV1RawFrameHeader, ptr %90, i32 0, i32 22
  store i16 %89, ptr %91, align 2, !tbaa !253
  br label %92

92:                                               ; preds = %86
  br label %93

93:                                               ; preds = %92
  br label %94

94:                                               ; preds = %93
  %95 = load ptr, ptr %7, align 8, !tbaa !159
  %96 = getelementptr inbounds nuw %struct.AV1RawFrameHeader, ptr %95, i32 0, i32 18
  %97 = load i16, ptr %96, align 4, !tbaa !252
  %98 = load ptr, ptr %7, align 8, !tbaa !159
  %99 = getelementptr inbounds nuw %struct.AV1RawFrameHeader, ptr %98, i32 0, i32 23
  store i16 %97, ptr %99, align 4, !tbaa !254
  br label %100

100:                                              ; preds = %94
  br label %101

101:                                              ; preds = %100
  br label %102

102:                                              ; preds = %101, %84
  %103 = load ptr, ptr %7, align 8, !tbaa !159
  %104 = getelementptr inbounds nuw %struct.AV1RawFrameHeader, ptr %103, i32 0, i32 22
  %105 = load i16, ptr %104, align 2, !tbaa !253
  %106 = zext i16 %105 to i32
  %107 = add nsw i32 %106, 1
  %108 = load ptr, ptr %8, align 8, !tbaa !37
  %109 = getelementptr inbounds nuw %struct.CodedBitstreamAV1Context, ptr %108, i32 0, i32 15
  store i32 %107, ptr %109, align 8, !tbaa !245
  %110 = load ptr, ptr %7, align 8, !tbaa !159
  %111 = getelementptr inbounds nuw %struct.AV1RawFrameHeader, ptr %110, i32 0, i32 23
  %112 = load i16, ptr %111, align 4, !tbaa !254
  %113 = zext i16 %112 to i32
  %114 = add nsw i32 %113, 1
  %115 = load ptr, ptr %8, align 8, !tbaa !37
  %116 = getelementptr inbounds nuw %struct.CodedBitstreamAV1Context, ptr %115, i32 0, i32 16
  store i32 %114, ptr %116, align 4, !tbaa !247
  store i32 0, ptr %4, align 4
  store i32 1, ptr %11, align 4
  br label %117

117:                                              ; preds = %102, %80, %59, %33
  call void @llvm.lifetime.end.p0(i64 4, ptr %9) #8
  call void @llvm.lifetime.end.p0(i64 8, ptr %8) #8
  %118 = load i32, ptr %4, align 4
  ret i32 %118
}