; Function Attrs: nounwind uwtable
define internal fastcc range(i32 -2147483648, 1) i32 @cbs_av1_read_render_size(ptr noundef %0, ptr noundef nonnull %1, ptr noundef captures(none) %2) unnamed_addr #0 {
  %4 = alloca i32, align 4
  %5 = alloca i32, align 4
  %6 = alloca i32, align 4
  %7 = getelementptr inbounds nuw i8, ptr %0, i64 16
  %8 = load ptr, ptr %7, align 8, !tbaa !33
  call void @llvm.lifetime.start.p0(i64 4, ptr nonnull %4) #8
  %9 = call i32 @ff_cbs_read_simple_unsigned(ptr noundef %0, ptr noundef nonnull %1, i32 noundef 1, ptr noundef nonnull @.str.146, ptr noundef nonnull %4) #8
  %10 = icmp sgt i32 %9, -1
  br i1 %10, label %11, label %.critedge

11:                                               ; preds = %3
  %12 = load i32, ptr %4, align 4, !tbaa !69
  %13 = trunc i32 %12 to i8
  %14 = getelementptr inbounds nuw i8, ptr %2, i64 164
  store i8 %13, ptr %14, align 4, !tbaa !317
  call void @llvm.lifetime.end.p0(i64 4, ptr nonnull %4) #8
  %.not = icmp eq i8 %13, 0
  br i1 %.not, label %29, label %15

15:                                               ; preds = %11
  call void @llvm.lifetime.start.p0(i64 4, ptr nonnull %5) #8
  %16 = call i32 @ff_cbs_read_simple_unsigned(ptr noundef nonnull %0, ptr noundef nonnull %1, i32 noundef 16, ptr noundef nonnull @.str.147, ptr noundef nonnull %5) #8
  %17 = icmp sgt i32 %16, -1
  br i1 %17, label %19, label %18

18:                                               ; preds = %15
  call void @llvm.lifetime.end.p0(i64 4, ptr nonnull %5) #8
  br label %45

19:                                               ; preds = %15
  %20 = load i32, ptr %5, align 4, !tbaa !69
  %21 = trunc i32 %20 to i16
  %22 = getelementptr inbounds nuw i8, ptr %2, i64 166
  store i16 %21, ptr %22, align 2, !tbaa !244
  call void @llvm.lifetime.end.p0(i64 4, ptr nonnull %5) #8
  call void @llvm.lifetime.start.p0(i64 4, ptr nonnull %6) #8
  %23 = call i32 @ff_cbs_read_simple_unsigned(ptr noundef nonnull %0, ptr noundef nonnull %1, i32 noundef 16, ptr noundef nonnull @.str.148, ptr noundef nonnull %6) #8
  %24 = icmp sgt i32 %23, -1
  br i1 %24, label %.thread37, label %28

.thread37:                                        ; preds = %19
  %25 = load i32, ptr %6, align 4, !tbaa !69
  %26 = trunc i32 %25 to i16
  %27 = getelementptr inbounds nuw i8, ptr %2, i64 168
  store i16 %26, ptr %27, align 4, !tbaa !245
  call void @llvm.lifetime.end.p0(i64 4, ptr nonnull %6) #8
  %.pre = load i16, ptr %22, align 2, !tbaa !244
  br label %36

28:                                               ; preds = %19
  call void @llvm.lifetime.end.p0(i64 4, ptr nonnull %6) #8
  br label %45

29:                                               ; preds = %11
  %30 = getelementptr inbounds nuw i8, ptr %2, i64 158
  %31 = load i16, ptr %30, align 2, !tbaa !242
  %32 = getelementptr inbounds nuw i8, ptr %2, i64 166
  store i16 %31, ptr %32, align 2, !tbaa !244
  %33 = getelementptr inbounds nuw i8, ptr %2, i64 160
  %34 = load i16, ptr %33, align 4, !tbaa !243
  %35 = getelementptr inbounds nuw i8, ptr %2, i64 168
  store i16 %34, ptr %35, align 4, !tbaa !245
  br label %36

36:                                               ; preds = %.thread37, %29
  %37 = phi i16 [ %26, %.thread37 ], [ %34, %29 ]
  %38 = phi i16 [ %.pre, %.thread37 ], [ %31, %29 ]
  %39 = zext i16 %38 to i32
  %40 = add nuw nsw i32 %39, 1
  %41 = getelementptr inbounds nuw i8, ptr %8, i64 88
  store i32 %40, ptr %41, align 8, !tbaa !235
  %42 = zext i16 %37 to i32
  %43 = add nuw nsw i32 %42, 1
  %44 = getelementptr inbounds nuw i8, ptr %8, i64 92
  store i32 %43, ptr %44, align 4, !tbaa !237
  br label %45

.critedge:                                        ; preds = %3
  call void @llvm.lifetime.end.p0(i64 4, ptr nonnull %4) #8
  br label %45

45:                                               ; preds = %28, %18, %.critedge, %36
  %.131 = phi i32 [ 0, %36 ], [ %23, %28 ], [ %16, %18 ], [ %9, %.critedge ]
  ret i32 %.131
}